target datalayout = "e-m:e-p270:32:32-p271:32:32-p272:64:64-i64:64-i128:128-f80:128-n8:16:32:64-S128"
target triple = "x86_64-pc-linux-gnu"

%struct._e_prefs = type { ptr, i32, %struct.color_t, %struct.color_t, %struct.color_t, %struct.color_t, %struct.color_t, %struct.color_t, %struct.color_t, i32, i32, ptr, %struct.color_t, %struct.color_t, i32, %struct.color_t, %struct.color_t, i32, %struct.color_t, %struct.color_t, %struct.color_t, %struct.color_t, ptr, ptr, i32, i32, i32, i32, i32, i32, ptr, i32, ptr, i32, i32, i32, ptr, ptr, ptr, i32, i32, i32, i32, i32, i32, i32, i32, i32, i32, ptr, i32, i32, i32, i32, i32, ptr, ptr, ptr, ptr, ptr, ptr, ptr, ptr, ptr, i32, i32, i32, i32, i32, i32, i32, i32, ptr, i32, i32, i32, i32, i32, i32, i32, i32, i32, i32, i32, i32, i32, i32, ptr, i32, i32, i32, i32, i32, i32, i32, i32, i32, i32, i32, i32, i32, i32, i32, i32, i32, i32, i32, i32, i32, i32, i32, i32, i32, i32, i32 }
%struct.color_t = type { i16, i16, i16 }
%class.QModelIndex = type { i32, i32, i64, ptr }
%class.QObject = type { ptr, %class.QScopedPointer }
%class.QScopedPointer = type { ptr }
%class.QPaintDevice.base = type <{ ptr, i16 }>
%class.QList.9 = type { %struct.QArrayDataPointer.12 }
%struct.QArrayDataPointer.12 = type { ptr, ptr, i64 }
%class.PacketList = type { %class.QTreeView, ptr, ptr, ptr, ptr, %class.QMenu, %class.QMenu, %class.QMenu, i32, %class.QByteArray, ptr, i32, i8, i8, %class.QList, i8, %class.QModelIndex, %class.RelatedPacketDelegate, ptr, %class.QList.1, i8, i8, i8, i8, i8, %class.QModelIndex, %class.QList.5, %class.QList.9, i32, i8, ptr }
%class.QTreeView = type { %class.QAbstractItemView }
%class.QAbstractItemView = type { %class.QAbstractScrollArea }
%class.QAbstractScrollArea = type { %class.QFrame }
%class.QFrame = type { %class.QWidget }
%class.QWidget = type { %class.QObject, %class.QPaintDevice.base, ptr }
%class.QMenu = type { %class.QWidget }
%class.QByteArray = type { %struct.QArrayDataPointer }
%struct.QArrayDataPointer = type { ptr, ptr, i64 }
%class.QList = type { %struct.QArrayDataPointer.0 }
%struct.QArrayDataPointer.0 = type { ptr, ptr, i64 }
%class.RelatedPacketDelegate = type <{ %class.QStyledItemDelegate, %class.QHash, ptr, i32, [4 x i8] }>
%class.QStyledItemDelegate = type { %class.QAbstractItemDelegate }
%class.QAbstractItemDelegate = type { %class.QObject }
%class.QHash = type { ptr }
%class.QList.1 = type { %struct.QArrayDataPointer.4 }
%struct.QArrayDataPointer.4 = type { ptr, ptr, i64 }
%class.QList.5 = type { %struct.QArrayDataPointer.8 }
%struct.QArrayDataPointer.8 = type { ptr, ptr, i64 }

@prefs = external global %struct._e_prefs, align 8

; Function Attrs: mustprogress uwtable
define void @_ZN10PacketList19setColumnVisibilityEv(ptr noundef nonnull align 8 dereferenceable(464) %0) #0 align 2 {
  %2 = alloca ptr, align 8
  %3 = alloca i32, align 4
  store ptr %0, ptr %2, align 8
  %4 = load ptr, ptr %2, align 8
  %5 = getelementptr inbounds %class.PacketList, ptr %4, i32 0, i32 23
  store i8 1, ptr %5, align 1
  store i32 0, ptr %3, align 4
  br label %6

6:                                                ; preds = %16, %1
  %7 = load i32, ptr %3, align 4
  %8 = load i32, ptr getelementptr inbounds (%struct._e_prefs, ptr @prefs, i32 0, i32 1), align 8
  %9 = icmp slt i32 %7, %8
  br i1 %9, label %10, label %19

10:                                               ; preds = %6
  %11 = load i32, ptr %3, align 4
  %12 = load i32, ptr %3, align 4
  %13 = call i32 @get_column_visible(i32 noundef %12)
  %14 = icmp ne i32 %13, 0
  %15 = select i1 %14, i1 false, i1 true
  call void @_ZN9QTreeView15setColumnHiddenEib(ptr noundef nonnull align 8 dereferenceable(40) %4, i32 noundef %11, i1 noundef zeroext %15)
  br label %16

16:                                               ; preds = %10
  %17 = load i32, ptr %3, align 4
  %18 = add i32 %17, 1
  store i32 %18, ptr %3, align 4
  br label %6, !llvm.loop !37

19:                                               ; preds = %6
  %20 = getelementptr inbounds %class.PacketList, ptr %4, i32 0, i32 23
  store i8 0, ptr %20, align 1
  ret void
}

; Function Attrs: mustprogress uwtable
define void @_ZN10PacketList14setCaptureFileEP13_capture_file(ptr noundef nonnull align 8 dereferenceable(464) %0, ptr noundef %1) #0 align 2 {
  %3 = alloca ptr, align 8
  %4 = alloca ptr, align 8
  store ptr %0, ptr %3, align 8
  store ptr %1, ptr %4, align 8
  %5 = load ptr, ptr %3, align 8
  %6 = load ptr, ptr %4, align 8
  %7 = getelementptr inbounds %class.PacketList, ptr %5, i32 0, i32 4
  store ptr %6, ptr %7, align 8
  %8 = getelementptr inbounds %class.PacketList, ptr %5, i32 0, i32 1
  %9 = load ptr, ptr %8, align 8
  %10 = load ptr, ptr %4, align 8
  call void @_ZN15PacketListModel14setCaptureFileEP13_capture_file(ptr noundef nonnull align 8 dereferenceable(164) %9, ptr noundef %10)
  %11 = load ptr, ptr %4, align 8
  %12 = icmp ne ptr %11, null
  br i1 %12, label %13, label %23

13:                                               ; preds = %2
  %14 = getelementptr inbounds %class.PacketList, ptr %5, i32 0, i32 22
  %15 = load i8, ptr %14, align 2
  %16 = trunc i8 %15 to i1
  br i1 %16, label %17, label %18

17:                                               ; preds = %13
  call void @_ZN10PacketList14columnsChangedEv(ptr noundef nonnull align 8 dereferenceable(464) %5)
  br label %22

18:                                               ; preds = %13
  %19 = call noundef ptr @_ZNK9QTreeView6headerEv(ptr noundef nonnull align 8 dereferenceable(40) %5)
  %20 = getelementptr inbounds %class.PacketList, ptr %5, i32 0, i32 9
  %21 = call noundef zeroext i1 @_ZN11QHeaderView12restoreStateERK10QByteArray(ptr noundef nonnull align 8 dereferenceable(40) %19, ptr noundef nonnull align 8 dereferenceable(24) %20)
  call void @_ZN10PacketList19setColumnVisibilityEv(ptr noundef nonnull align 8 dereferenceable(464) %5)
  br label %22

22:                                               ; preds = %18, %17
  br label %23

23:                                               ; preds = %22, %2
  %24 = getelementptr inbounds %class.PacketList, ptr %5, i32 0, i32 12
  store i8 1, ptr %24, align 4
  %25 = getelementptr inbounds %class.PacketList, ptr %5, i32 0, i32 15
  store i8 0, ptr %25, align 8
  call void @_ZN9QTreeView12sortByColumnEiN2Qt9SortOrderE(ptr noundef nonnull align 8 dereferenceable(40) %5, i32 noundef -1, i32 noundef 0)
  ret void
}