; Function Attrs: mustprogress uwtable
define void @_ZN10PacketList14setCaptureFileEP13_capture_file(ptr noundef nonnull align 8 dereferenceable(464) %0, ptr noundef %1) local_unnamed_addr #0 align 2 {
  %3 = getelementptr inbounds i8, ptr %0, i64 64
  store ptr %1, ptr %3, align 8
  %4 = getelementptr inbounds i8, ptr %0, i64 40
  %5 = load ptr, ptr %4, align 8
  tail call void @_ZN15PacketListModel14setCaptureFileEP13_capture_file(ptr noundef nonnull align 8 dereferenceable(164) %5, ptr noundef %1)
  %.not = icmp eq ptr %1, null
  br i1 %.not, label %22, label %6

6:                                                ; preds = %2
  %7 = getelementptr inbounds i8, ptr %0, i64 370
  %8 = load i8, ptr %7, align 2
  %9 = and i8 %8, 1
  %.not4 = icmp eq i8 %9, 0
  br i1 %.not4, label %11, label %10

10:                                               ; preds = %6
  tail call void @_ZN10PacketList14columnsChangedEv(ptr noundef nonnull align 8 dereferenceable(464) %0)
  br label %22

11:                                               ; preds = %6
  %12 = tail call noundef ptr @_ZNK9QTreeView6headerEv(ptr noundef nonnull align 8 dereferenceable(40) %0)
  %13 = getelementptr inbounds i8, ptr %0, i64 200
  %14 = tail call noundef zeroext i1 @_ZN11QHeaderView12restoreStateERK10QByteArray(ptr noundef nonnull align 8 dereferenceable(40) %12, ptr noundef nonnull align 8 dereferenceable(24) %13)
  %15 = getelementptr inbounds i8, ptr %0, i64 371
  store i8 1, ptr %15, align 1
  %16 = load i32, ptr getelementptr inbounds (%struct._e_prefs, ptr @prefs, i64 0, i32 1), align 8
  %17 = icmp sgt i32 %16, 0
  br i1 %17, label %.lr.ph.i, label %_ZN10PacketList19setColumnVisibilityEv.exit

.lr.ph.i:                                         ; preds = %11, %.lr.ph.i
  %.04.i = phi i32 [ %19, %.lr.ph.i ], [ 0, %11 ]
  %18 = tail call i32 @get_column_visible(i32 noundef %.04.i)
  %.not.i = icmp eq i32 %18, 0
  tail call void @_ZN9QTreeView15setColumnHiddenEib(ptr noundef nonnull align 8 dereferenceable(40) %0, i32 noundef %.04.i, i1 noundef zeroext %.not.i)
  %19 = add nuw nsw i32 %.04.i, 1
  %20 = load i32, ptr getelementptr inbounds (%struct._e_prefs, ptr @prefs, i64 0, i32 1), align 8
  %21 = icmp slt i32 %19, %20
  br i1 %21, label %.lr.ph.i, label %_ZN10PacketList19setColumnVisibilityEv.exit, !llvm.loop !4

_ZN10PacketList19setColumnVisibilityEv.exit:      ; preds = %.lr.ph.i, %11
  store i8 0, ptr %15, align 1
  br label %22

22:                                               ; preds = %10, %_ZN10PacketList19setColumnVisibilityEv.exit, %2
  %23 = getelementptr inbounds i8, ptr %0, i64 236
  store i8 1, ptr %23, align 4
  %24 = getelementptr inbounds i8, ptr %0, i64 264
  store i8 0, ptr %24, align 8
  tail call void @_ZN9QTreeView12sortByColumnEiN2Qt9SortOrderE(ptr noundef nonnull align 8 dereferenceable(40) %0, i32 noundef -1, i32 noundef 0)
  ret void
}